; ModuleID = 'source-C-CXX/10/813.c'
source_filename = "source-C-CXX/10/813.c"
target datalayout = "e-m:e-p270:32:32-p271:32:32-p272:64:64-i64:64-f80:128-n8:16:32:64-S128"
target triple = "x86_64-pc-linux-gnu"

%struct._IO_FILE = type { i32, i8*, i8*, i8*, i8*, i8*, i8*, i8*, i8*, i8*, i8*, i8*, %struct._IO_marker*, %struct._IO_FILE*, i32, i32, i64, i16, i8, [1 x i8], i8*, i64, %struct._IO_codecvt*, %struct._IO_wide_data*, %struct._IO_FILE*, i8*, i64, i32, [20 x i8] }
%struct._IO_marker = type opaque
%struct._IO_codecvt = type opaque
%struct._IO_wide_data = type opaque

@.str = private unnamed_addr constant [7 x i8] c"%d%d%d\00", align 1
@.str.2 = private unnamed_addr constant [4 x i8] c"%d\0A\00", align 1
@stdin = external local_unnamed_addr global %struct._IO_FILE*, align 8
@str = private unnamed_addr constant [11 x i8] c"data error\00", align 1

; Function Attrs: nofree nounwind sspstrong uwtable
define dso_local i32 @main() local_unnamed_addr #0 {
  %1 = alloca i32, align 4
  %2 = alloca i32, align 4
  %3 = alloca i32, align 4
  %4 = bitcast i32* %1 to i8*
  call void @llvm.lifetime.start.p0i8(i64 4, i8* nonnull %4) #4
  %5 = bitcast i32* %2 to i8*
  call void @llvm.lifetime.start.p0i8(i64 4, i8* nonnull %5) #4
  %6 = bitcast i32* %3 to i8*
  call void @llvm.lifetime.start.p0i8(i64 4, i8* nonnull %6) #4
  %7 = call i32 (i8*, ...) @__isoc99_scanf(i8* getelementptr inbounds ([7 x i8], [7 x i8]* @.str, i64 0, i64 0), i32* nonnull %3, i32* nonnull %2, i32* nonnull %1)
  %8 = load i32, i32* %2, align 4, !tbaa !5
  switch i32 %8, label %20 [
    i32 1, label %24
    i32 2, label %9
    i32 3, label %10
    i32 4, label %11
    i32 5, label %12
    i32 6, label %13
    i32 7, label %14
    i32 8, label %15
    i32 9, label %16
    i32 10, label %17
    i32 11, label %18
    i32 12, label %19
  ]

9:                                                ; preds = %0
  br label %24

10:                                               ; preds = %0
  br label %24

11:                                               ; preds = %0
  br label %24

12:                                               ; preds = %0
  br label %24

13:                                               ; preds = %0
  br label %24

14:                                               ; preds = %0
  br label %24

15:                                               ; preds = %0
  br label %24

16:                                               ; preds = %0
  br label %24

17:                                               ; preds = %0
  br label %24

18:                                               ; preds = %0
  br label %24

19:                                               ; preds = %0
  br label %24

20:                                               ; preds = %0
  %21 = call i32 @puts(i8* nonnull dereferenceable(1) getelementptr inbounds ([11 x i8], [11 x i8]* @str, i64 0, i64 0))
  %22 = load i32, i32* %2, align 4
  %23 = icmp sgt i32 %22, 2
  br label %24

24:                                               ; preds = %0, %20, %19, %18, %17, %16, %15, %14, %13, %12, %11, %10, %9
  %25 = phi i1 [ %23, %20 ], [ true, %19 ], [ true, %18 ], [ true, %17 ], [ true, %16 ], [ true, %15 ], [ true, %14 ], [ true, %13 ], [ true, %12 ], [ true, %11 ], [ true, %10 ], [ false, %9 ], [ false, %0 ]
  %26 = phi i32 [ undef, %20 ], [ 334, %19 ], [ 304, %18 ], [ 273, %17 ], [ 243, %16 ], [ 212, %15 ], [ 181, %14 ], [ 151, %13 ], [ 120, %12 ], [ 90, %11 ], [ 59, %10 ], [ 31, %9 ], [ 0, %0 ]
  %27 = load i32, i32* %1, align 4, !tbaa !5
  %28 = add nsw i32 %27, %26
  %29 = load i32, i32* %3, align 4, !tbaa !5
  %30 = srem i32 %29, 400
  %31 = icmp eq i32 %30, 0
  %32 = select i1 %31, i1 %25, i1 false
  %33 = zext i1 %32 to i32
  %34 = add nsw i32 %28, %33
  %35 = call i32 (i8*, ...) @printf(i8* nonnull dereferenceable(1) getelementptr inbounds ([4 x i8], [4 x i8]* @.str.2, i64 0, i64 0), i32 %34)
  %36 = load %struct._IO_FILE*, %struct._IO_FILE** @stdin, align 8, !tbaa !9
  %37 = call i32 @getc(%struct._IO_FILE* %36) #4
  %38 = load %struct._IO_FILE*, %struct._IO_FILE** @stdin, align 8, !tbaa !9
  %39 = call i32 @getc(%struct._IO_FILE* %38) #4
  call void @llvm.lifetime.end.p0i8(i64 4, i8* nonnull %6) #4
  call void @llvm.lifetime.end.p0i8(i64 4, i8* nonnull %5) #4
  call void @llvm.lifetime.end.p0i8(i64 4, i8* nonnull %4) #4
  ret i32 0
}

; Function Attrs: argmemonly mustprogress nofree nosync nounwind willreturn
declare void @llvm.lifetime.start.p0i8(i64 immarg, i8* nocapture) #1

; Function Attrs: nofree nounwind
declare noundef i32 @__isoc99_scanf(i8* nocapture noundef readonly, ...) local_unnamed_addr #2

; Function Attrs: nofree nounwind
declare noundef i32 @printf(i8* nocapture noundef readonly, ...) local_unnamed_addr #2

; Function Attrs: argmemonly mustprogress nofree nosync nounwind willreturn
declare void @llvm.lifetime.end.p0i8(i64 immarg, i8* nocapture) #1

; Function Attrs: nofree nounwind
declare noundef i32 @getc(%struct._IO_FILE* nocapture noundef) local_unnamed_addr #2

; Function Attrs: nofree nounwind
declare noundef i32 @puts(i8* nocapture noundef readonly) local_unnamed_addr #3


!llvm.module.flags = !{!0, !1, !2, !3}
!llvm.ident = !{!4}

!0 = !{i32 1, !"wchar_size", i32 4}
!1 = !{i32 7, !"PIC Level", i32 2}
!2 = !{i32 7, !"PIE Level", i32 2}
!3 = !{i32 7, !"uwtable", i32 1}
!4 = !{!"clang version 13.0.0"}
!5 = !{!6, !6, i64 0}
!6 = !{!"int", !7, i64 0}
!7 = !{!"omnipotent char", !8, i64 0}
!8 = !{!"Simple C/C++ TBAA"}
!9 = !{!10, !10, i64 0}
!10 = !{!"any pointer", !7, i64 0}
